


ARM Macro Assembler    Page 1 


    1 00000000         ; generated by Component: ARM Compiler 5.06 update 7 (bu
                       ild 960) Tool: ArmCC [4d365d]
    2 00000000         ; commandline ArmCC [--c99 --split_sections --debug -c -
                       S -ostm32c30dhal\main.s --depend=stm32c30dhal\main.d --c
                       pu=Cortex-M4.fp.sp --apcs=interwork -O3 --diag_suppress=
                       9931 -I../Core/Inc -I../Drivers/STM32F4xx_HAL_Driver/Inc
                        -I../Drivers/STM32F4xx_HAL_Driver/Inc/Legacy -I../Drive
                       rs/CMSIS/Device/ST/STM32F4xx/Include -I../Drivers/CMSIS/
                       Include -I./SYSTEM/delay -I./SYSTEM/sys -I./SYSTEM/usart
                        -I./HARDWARE -I./SYSTEM/mish -I./stm32c30dhal -I.\Balan
                       ce -I.\RTE\_stm32c30dhal -IC:\Keil_v5\ARM\CMSIS\5.9.0\CM
                       SIS\Core\Include -IC:\Keil_v5\Keil\STM32F4xx_DFP\2.9.0\D
                       rivers\CMSIS\Device\ST\STM32F4xx\Include -D__UVISION_VER
                       SION=537 -D_RTE_ -DSTM32F407xx -D_RTE_ -DUSE_HAL_DRIVER 
                       -DSTM32F407xx --omf_browse=stm32c30dhal\main.crf ../Core
                       /Src/main.c]
    3 00000000                 THUMB
    4 00000000                 REQUIRE8
    5 00000000                 PRESERVE8
    6 00000000         
    7 00000000                 AREA             ||i.Error_Handler||, CODE, READ
ONLY, ALIGN=1
    8 00000000         
    9 00000000         Error_Handler
                               PROC
   10 00000000 B672            CPSID            i
   11 00000002         |L0.2|
   12 00000002 E7FE            B                |L0.2|
   13 00000004                 ENDP
   14 00000004         
   15 00000004         
   16 00000004                 AREA             ||i.HAL_Delay_us||, CODE, READO
NLY, ALIGN=2
   17 00000000         
   18 00000000         HAL_Delay_us
                               PROC
   19 00000000 B510            PUSH             {r4,lr}
   20 00000002 4604            MOV              r4,r0
   21 00000004 F7FF FFFE       BL               HAL_RCC_GetHCLKFreq
   22 00000008 4908            LDR              r1,|L1.44|
   23 0000000A FBB0 F0F1       UDIV             r0,r0,r1
   24 0000000E F7FF FFFE       BL               HAL_SYSTICK_Config
   25 00000012 1E60            SUBS             r0,r4,#1
   26 00000014 F7FF FFFE       BL               HAL_Delay
   27 00000018 F7FF FFFE       BL               HAL_RCC_GetHCLKFreq
   28 0000001C F44F 717A       MOV              r1,#0x3e8
   29 00000020 FBB0 F0F1       UDIV             r0,r0,r1
   30 00000024 E8BD 4010       POP              {r4,lr}
   31 00000028 F7FF BFFE       B.W              HAL_SYSTICK_Config
   32 0000002C                 ENDP
   33 0000002C         
   34 0000002C         |L1.44|
   35 0000002C 000F4240        DCD              0x000f4240
   36 00000030         
   37 00000030                 AREA             ||i.SystemClock_Config||, CODE,
 READONLY, ALIGN=2
   38 00000000         
   39 00000000         SystemClock_Config
                               PROC



ARM Macro Assembler    Page 2 


   40 00000000 B530            PUSH             {r4,r5,lr}
   41 00000002 B093            SUB              sp,sp,#0x4c
   42 00000004 2130            MOVS             r1,#0x30
   43 00000006 4668            MOV              r0,sp
   44 00000008 F7FF FFFE       BL               __aeabi_memclr4
   45 0000000C 2114            MOVS             r1,#0x14
   46 0000000E A80C            ADD              r0,sp,#0x30
   47 00000010 F7FF FFFE       BL               __aeabi_memclr4
   48 00000014 481D            LDR              r0,|L2.140|
   49 00000016 2500            MOVS             r5,#0
   50 00000018 6801            LDR              r1,[r0,#0]
   51 0000001A F041 5180       ORR              r1,r1,#0x10000000
   52 0000001E 6001            STR              r1,[r0,#0]
   53 00000020 6800            LDR              r0,[r0,#0]
   54 00000022 F000 5080       AND              r0,r0,#0x10000000
   55 00000026 9011            STR              r0,[sp,#0x44]
   56 00000028 4819            LDR              r0,|L2.144|
   57 0000002A 6801            LDR              r1,[r0,#0]
   58 0000002C F441 4180       ORR              r1,r1,#0x4000
   59 00000030 6001            STR              r1,[r0,#0]
   60 00000032 6800            LDR              r0,[r0,#0]
   61 00000034 2402            MOVS             r4,#2
   62 00000036 F400 4080       AND              r0,r0,#0x4000
   63 0000003A 9011            STR              r0,[sp,#0x44]
   64 0000003C 2001            MOVS             r0,#1
   65 0000003E 9003            STR              r0,[sp,#0xc]
   66 00000040 2010            MOVS             r0,#0x10
   67 00000042 9400            STR              r4,[sp,#0]
   68 00000044 9406            STR              r4,[sp,#0x18]
   69 00000046 9004            STR              r0,[sp,#0x10]
   70 00000048 E9CD 5007       STRD             r5,r0,[sp,#0x1c]
   71 0000004C F44F 70A8       MOV              r0,#0x150
   72 00000050 E9CD 0409       STRD             r0,r4,[sp,#0x24]
   73 00000054 2004            MOVS             r0,#4
   74 00000056 900B            STR              r0,[sp,#0x2c]
   75 00000058 4668            MOV              r0,sp
   76 0000005A F7FF FFFE       BL               HAL_RCC_OscConfig
   77 0000005E B108            CBZ              r0,|L2.100|
   78 00000060 B672            CPSID            i
   79 00000062         |L2.98|
   80 00000062 E7FE            B                |L2.98|
   81 00000064         |L2.100|
   82 00000064 A90C            ADD              r1,sp,#0x30
   83 00000066 200F            MOVS             r0,#0xf
   84 00000068 E881 0031       STM              r1,{r0,r4,r5}
   85 0000006C F44F 50A0       MOV              r0,#0x1400
   86 00000070 900F            STR              r0,[sp,#0x3c]
   87 00000072 F44F 5080       MOV              r0,#0x1000
   88 00000076 9010            STR              r0,[sp,#0x40]
   89 00000078 2105            MOVS             r1,#5
   90 0000007A A80C            ADD              r0,sp,#0x30
   91 0000007C F7FF FFFE       BL               HAL_RCC_ClockConfig
   92 00000080 2800            CMP              r0,#0
   93 00000082 D001            BEQ              |L2.136|
   94 00000084 B672            CPSID            i
   95 00000086         |L2.134|
   96 00000086 E7FE            B                |L2.134|
   97 00000088         |L2.136|
   98 00000088 B013            ADD              sp,sp,#0x4c



ARM Macro Assembler    Page 3 


   99 0000008A BD30            POP              {r4,r5,pc}
  100 0000008C                 ENDP
  101 0000008C         
  102 0000008C         |L2.140|
  103 0000008C 40023840        DCD              0x40023840
  104 00000090         |L2.144|
  105 00000090 40007000        DCD              0x40007000
  106 00000094         
  107 00000094                 AREA             ||i.main||, CODE, READONLY, ALI
GN=2
  108 00000000         
  109 00000000         main    PROC
  110 00000000 F7FF FFFE       BL               HAL_Init
  111 00000004 F7FF FFFE       BL               SystemClock_Config
  112 00000008 F7FF FFFE       BL               MX_GPIO_Init
  113 0000000C F7FF FFFE       BL               MX_USART1_UART_Init
  114 00000010 F7FF FFFE       BL               MX_ADC1_Init
  115 00000014 F7FF FFFE       BL               MX_TIM1_Init
  116 00000018 F7FF FFFE       BL               MX_TIM2_Init
  117 0000001C F7FF FFFE       BL               MX_TIM3_Init
  118 00000020 F7FF FFFE       BL               MX_TIM4_Init
  119 00000024 F7FF FFFE       BL               MX_TIM5_Init
  120 00000028 F7FF FFFE       BL               MX_TIM8_Init
  121 0000002C F7FF FFFE       BL               MX_TIM9_Init
  122 00000030 F7FF FFFE       BL               MX_TIM10_Init
  123 00000034 F7FF FFFE       BL               MX_TIM11_Init
  124 00000038 F7FF FFFE       BL               MX_UART5_Init
  125 0000003C F7FF FFFE       BL               MX_USART2_UART_Init
  126 00000040 F7FF FFFE       BL               MX_TIM12_Init
  127 00000044 F7FF FFFE       BL               OLED_Init
  128 00000048 F7FF FFFE       BL               delay_init
  129 0000004C F7FF FFFE       BL               Robot_Select
  130 00000050 490C            LDR              r1,|L3.132|
  131 00000052 F06F 0001       MVN              r0,#1
  132 00000056 6809            LDR              r1,[r1,#0]  ; htim12
  133 00000058 6108            STR              r0,[r1,#0x10]
  134 0000005A 480A            LDR              r0,|L3.132|
  135 0000005C F7FF FFFE       BL               HAL_TIM_Base_Start_IT
  136 00000060 4D09            LDR              r5,|L3.136|
  137 00000062 F44F 5480       MOV              r4,#0x1000
  138 00000066 BF00            NOP
  139 00000068         |L3.104|
  140 00000068 F7FF FFFE       BL               PS2_Read
  141 0000006C F7FF FFFE       BL               show_task
  142 00000070 2201            MOVS             r2,#1
  143 00000072 4621            MOV              r1,r4
  144 00000074 4628            MOV              r0,r5
  145 00000076 F7FF FFFE       BL               HAL_GPIO_WritePin
  146 0000007A 2005            MOVS             r0,#5
  147 0000007C F7FF FFFE       BL               Led_Flash
  148 00000080 E7F2            B                |L3.104|
  149 00000082                 ENDP
  150 00000082         
  151 00000082 00 00           DCW              0x0000
  152 00000084         |L3.132|
  153 00000084 00000000        DCD              htim12
  154 00000088         |L3.136|
  155 00000088 40020000        DCD              0x40020000
  156 0000008C         



ARM Macro Assembler    Page 4 


  157 0000008C                 AREA             ||.arm_vfe_header||, DATA, READ
ONLY, NOALLOC, ALIGN=2
  158 00000000         
  159 00000000 00000000        DCD              0x00000000
  160 00000004         
  161 00000004         ;*** Start embedded assembler ***
  162 00000004         
  163 00000004         #line   1                "../Core/Src/main.c"
    1 00000004                 AREA             ||.rev16_text||, CODE
    2 00000000                 THUMB
    3 00000000                 EXPORT           |__asm___6_main_c_main____REV16
|
    4 00000000         #line   463              "../Drivers/CMSIS/Include/cmsis
_armcc.h"
  463 00000000         |__asm___6_main_c_main____REV16|
                               PROC
  464 00000000         #line   464
  464 00000000         
  465 00000000 BA40            rev16            r0, r0
  466 00000002 4770            bx               lr
  467 00000004                 ENDP
  468 00000004                 AREA             ||.revsh_text||, CODE
  469 00000000                 THUMB
  470 00000000                 EXPORT           |__asm___6_main_c_main____REVSH
|
  471 00000000         #line   478
  478 00000000         |__asm___6_main_c_main____REVSH|
                               PROC
  479 00000000         #line   479
  479 00000000         
  480 00000000 BAC0            revsh            r0, r0
  481 00000002 4770            bx               lr
  482 00000004                 ENDP
  483 00000004                 AREA             ||.rrx_text||, CODE
  484 00000000                 THUMB
  485 00000000                 EXPORT           |__asm___6_main_c_main____RRX|
  486 00000000         #line   665
  665 00000000         |__asm___6_main_c_main____RRX|
                               PROC
  666 00000000         #line   666
  666 00000000         
  667 00000000 EA4F 0030       rrx              r0, r0
  668 00000004 4770            bx               lr
  669 00000006                 ENDP
  670 00000006         
  671 00000006         ;*** End   embedded assembler ***
  672 00000006         
  673 00000006 00000000 
                       __ARM_use_no_argv
                               EQU              0
  674 00000006         
  675 00000006                 EXPORT           __ARM_use_no_argv
  676 00000006                 EXPORT           Error_Handler [CODE]
  677 00000006                 EXPORT           HAL_Delay_us [CODE]
  678 00000006                 EXPORT           SystemClock_Config [CODE]
  679 00000006                 EXPORT           main [CODE]
  680 00000006         
  681 00000006                 IMPORT           ||Lib$$Request$$armlib|| [CODE,
WEAK]



ARM Macro Assembler    Page 5 


  682 00000006                 IMPORT           __aeabi_memclr4 [CODE]
  683 00000006                 IMPORT           HAL_RCC_OscConfig [CODE]
  684 00000006                 IMPORT           HAL_RCC_ClockConfig [CODE]
  685 00000006                 IMPORT           HAL_Init [CODE]
  686 00000006                 IMPORT           MX_GPIO_Init [CODE]
  687 00000006                 IMPORT           MX_USART1_UART_Init [CODE]
  688 00000006                 IMPORT           MX_ADC1_Init [CODE]
  689 00000006                 IMPORT           MX_TIM1_Init [CODE]
  690 00000006                 IMPORT           MX_TIM2_Init [CODE]
  691 00000006                 IMPORT           MX_TIM3_Init [CODE]
  692 00000006                 IMPORT           MX_TIM4_Init [CODE]
  693 00000006                 IMPORT           MX_TIM5_Init [CODE]
  694 00000006                 IMPORT           MX_TIM8_Init [CODE]
  695 00000006                 IMPORT           MX_TIM9_Init [CODE]
  696 00000006                 IMPORT           MX_TIM10_Init [CODE]
  697 00000006                 IMPORT           MX_TIM11_Init [CODE]
  698 00000006                 IMPORT           MX_UART5_Init [CODE]
  699 00000006                 IMPORT           MX_USART2_UART_Init [CODE]
  700 00000006                 IMPORT           MX_TIM12_Init [CODE]
  701 00000006                 IMPORT           OLED_Init [CODE]
  702 00000006                 IMPORT           delay_init [CODE]
  703 00000006                 IMPORT           Robot_Select [CODE]
  704 00000006                 IMPORT           HAL_TIM_Base_Start_IT [CODE]
  705 00000006                 IMPORT           PS2_Read [CODE]
  706 00000006                 IMPORT           show_task [CODE]
  707 00000006                 IMPORT           HAL_GPIO_WritePin [CODE]
  708 00000006                 IMPORT           Led_Flash [CODE]
  709 00000006                 IMPORT           htim12 [DATA]
  710 00000006                 IMPORT           HAL_RCC_GetHCLKFreq [CODE]
  711 00000006                 IMPORT           HAL_SYSTICK_Config [CODE]
  712 00000006                 IMPORT           HAL_Delay [CODE]
  713 00000006         
  714 00000006                 ATTR             FILESCOPE
  715 00000006                 ATTR             SETVALUE Tag_ABI_PCS_wchar_t,2
  716 00000006                 ATTR             SETVALUE Tag_ABI_enum_size,1
  717 00000006                 ATTR             SETVALUE Tag_ABI_optimization_g
oals,3
  718 00000006                 ATTR             SETSTRING Tag_conformance,"2.09
"
  719 00000006                 ATTR             SETVALUE AV,18,1
  720 00000006         
  721 00000006                 ASSERT           {ENDIAN} = "little"
  722 00000006                 ASSERT           {INTER} = {TRUE}
  723 00000006                 ASSERT           {ROPI} = {FALSE}
  724 00000006                 ASSERT           {RWPI} = {FALSE}
  725 00000006                 ASSERT           {IEEE_FULL} = {FALSE}
  726 00000006                 ASSERT           {IEEE_PART} = {FALSE}
  727 00000006                 ASSERT           {IEEE_JAVA} = {FALSE}
  728 00000006                 END
Command Line: --debug --xref --diag_suppress=9931 --cpu=Cortex-M4.fp.sp --apcs=
interwork -ostm32c30dhal\main.o -I.\RTE\_stm32c30dhal -IC:\Keil_v5\ARM\CMSIS\5.
9.0\CMSIS\Core\Include -IC:\Keil_v5\Keil\STM32F4xx_DFP\2.9.0\Drivers\CMSIS\Devi
ce\ST\STM32F4xx\Include --predefine="__UVISION_VERSION SETA 537" --predefine="_
RTE_ SETA 1" --predefine="STM32F407xx SETA 1" --predefine="_RTE_ SETA 1" --list
=main.lst stm32c30dhal\main.s



ARM Macro Assembler    Page 1 Alphabetic symbol ordering
Relocatable symbols

Error_Handler 00000000

Symbol: Error_Handler
   Definitions
      At line 9 in file stm32c30dhal\main.s
   Uses
      At line 676 in file ..\Drivers\CMSIS\Include\cmsis_armcc.h
Comment: Error_Handler used once
L0.2 00000002

Symbol: L0.2
   Definitions
      At line 11 in file stm32c30dhal\main.s
   Uses
      At line 12 in file stm32c30dhal\main.s
Comment: L0.2 used once
|i.Error_Handler| 00000000

Symbol: |i.Error_Handler|
   Definitions
      At line 7 in file stm32c30dhal\main.s
   Uses
      None
Comment: |i.Error_Handler| unused
3 symbols



ARM Macro Assembler    Page 1 Alphabetic symbol ordering
Relocatable symbols

HAL_Delay_us 00000000

Symbol: HAL_Delay_us
   Definitions
      At line 18 in file stm32c30dhal\main.s
   Uses
      At line 677 in file ..\Drivers\CMSIS\Include\cmsis_armcc.h
Comment: HAL_Delay_us used once
L1.44 0000002C

Symbol: L1.44
   Definitions
      At line 34 in file stm32c30dhal\main.s
   Uses
      At line 22 in file stm32c30dhal\main.s
Comment: L1.44 used once
|i.HAL_Delay_us| 00000000

Symbol: |i.HAL_Delay_us|
   Definitions
      At line 16 in file stm32c30dhal\main.s
   Uses
      None
Comment: |i.HAL_Delay_us| unused
3 symbols



ARM Macro Assembler    Page 1 Alphabetic symbol ordering
Relocatable symbols

L2.100 00000064

Symbol: L2.100
   Definitions
      At line 81 in file stm32c30dhal\main.s
   Uses
      At line 77 in file stm32c30dhal\main.s
Comment: L2.100 used once
L2.134 00000086

Symbol: L2.134
   Definitions
      At line 95 in file stm32c30dhal\main.s
   Uses
      At line 96 in file stm32c30dhal\main.s
Comment: L2.134 used once
L2.136 00000088

Symbol: L2.136
   Definitions
      At line 97 in file stm32c30dhal\main.s
   Uses
      At line 93 in file stm32c30dhal\main.s
Comment: L2.136 used once
L2.140 0000008C

Symbol: L2.140
   Definitions
      At line 102 in file stm32c30dhal\main.s
   Uses
      At line 48 in file stm32c30dhal\main.s
Comment: L2.140 used once
L2.144 00000090

Symbol: L2.144
   Definitions
      At line 104 in file stm32c30dhal\main.s
   Uses
      At line 56 in file stm32c30dhal\main.s
Comment: L2.144 used once
L2.98 00000062

Symbol: L2.98
   Definitions
      At line 79 in file stm32c30dhal\main.s
   Uses
      At line 80 in file stm32c30dhal\main.s
Comment: L2.98 used once
SystemClock_Config 00000000

Symbol: SystemClock_Config
   Definitions
      At line 39 in file stm32c30dhal\main.s
   Uses
      At line 111 in file stm32c30dhal\main.s
      At line 678 in file ..\Drivers\CMSIS\Include\cmsis_armcc.h

|i.SystemClock_Config| 00000000




ARM Macro Assembler    Page 2 Alphabetic symbol ordering
Relocatable symbols

Symbol: |i.SystemClock_Config|
   Definitions
      At line 37 in file stm32c30dhal\main.s
   Uses
      None
Comment: |i.SystemClock_Config| unused
8 symbols



ARM Macro Assembler    Page 1 Alphabetic symbol ordering
Relocatable symbols

L3.104 00000068

Symbol: L3.104
   Definitions
      At line 139 in file stm32c30dhal\main.s
   Uses
      At line 148 in file stm32c30dhal\main.s
Comment: L3.104 used once
L3.132 00000084

Symbol: L3.132
   Definitions
      At line 152 in file stm32c30dhal\main.s
   Uses
      At line 130 in file stm32c30dhal\main.s
      At line 134 in file stm32c30dhal\main.s

L3.136 00000088

Symbol: L3.136
   Definitions
      At line 154 in file stm32c30dhal\main.s
   Uses
      At line 136 in file stm32c30dhal\main.s
Comment: L3.136 used once
main 00000000

Symbol: main
   Definitions
      At line 109 in file stm32c30dhal\main.s
   Uses
      At line 679 in file ..\Drivers\CMSIS\Include\cmsis_armcc.h
Comment: main used once
|i.main| 00000000

Symbol: |i.main|
   Definitions
      At line 107 in file stm32c30dhal\main.s
   Uses
      None
Comment: |i.main| unused
5 symbols



ARM Macro Assembler    Page 1 Alphabetic symbol ordering
Relocatable symbols

|.arm_vfe_header| 00000000

Symbol: |.arm_vfe_header|
   Definitions
      At line 157 in file stm32c30dhal\main.s
   Uses
      None
Comment: |.arm_vfe_header| unused
1 symbol



ARM Macro Assembler    Page 1 Alphabetic symbol ordering
Relocatable symbols

__asm___6_main_c_main____REV16 00000000

Symbol: __asm___6_main_c_main____REV16
   Definitions
      At line 463 in file ..\Drivers\CMSIS\Include\cmsis_armcc.h
   Uses
      At line 3 in file ..\Core\Src\main.c
Comment: __asm___6_main_c_main____REV16 used once
|.rev16_text| 00000000

Symbol: |.rev16_text|
   Definitions
      At line 1 in file ..\Core\Src\main.c
   Uses
      None
Comment: |.rev16_text| unused
2 symbols



ARM Macro Assembler    Page 1 Alphabetic symbol ordering
Relocatable symbols

__asm___6_main_c_main____REVSH 00000000

Symbol: __asm___6_main_c_main____REVSH
   Definitions
      At line 478 in file ..\Drivers\CMSIS\Include\cmsis_armcc.h
   Uses
      At line 470 in file ..\Drivers\CMSIS\Include\cmsis_armcc.h
Comment: __asm___6_main_c_main____REVSH used once
|.revsh_text| 00000000

Symbol: |.revsh_text|
   Definitions
      At line 468 in file ..\Drivers\CMSIS\Include\cmsis_armcc.h
   Uses
      None
Comment: |.revsh_text| unused
2 symbols



ARM Macro Assembler    Page 1 Alphabetic symbol ordering
Relocatable symbols

__asm___6_main_c_main____RRX 00000000

Symbol: __asm___6_main_c_main____RRX
   Definitions
      At line 665 in file ..\Drivers\CMSIS\Include\cmsis_armcc.h
   Uses
      At line 485 in file ..\Drivers\CMSIS\Include\cmsis_armcc.h
Comment: __asm___6_main_c_main____RRX used once
|.rrx_text| 00000000

Symbol: |.rrx_text|
   Definitions
      At line 483 in file ..\Drivers\CMSIS\Include\cmsis_armcc.h
   Uses
      None
Comment: |.rrx_text| unused
2 symbols



ARM Macro Assembler    Page 1 Alphabetic symbol ordering
Absolute symbols

__ARM_use_no_argv 00000000

Symbol: __ARM_use_no_argv
   Definitions
      At line 673 in file ..\Drivers\CMSIS\Include\cmsis_armcc.h
   Uses
      At line 675 in file ..\Drivers\CMSIS\Include\cmsis_armcc.h
Comment: __ARM_use_no_argv used once
1 symbol



ARM Macro Assembler    Page 1 Alphabetic symbol ordering
External symbols

HAL_Delay 00000000

Symbol: HAL_Delay
   Definitions
      At line 712 in file ..\Drivers\CMSIS\Include\cmsis_armcc.h
   Uses
      At line 26 in file stm32c30dhal\main.s
Comment: HAL_Delay used once
HAL_GPIO_WritePin 00000000

Symbol: HAL_GPIO_WritePin
   Definitions
      At line 707 in file ..\Drivers\CMSIS\Include\cmsis_armcc.h
   Uses
      At line 145 in file stm32c30dhal\main.s
Comment: HAL_GPIO_WritePin used once
HAL_Init 00000000

Symbol: HAL_Init
   Definitions
      At line 685 in file ..\Drivers\CMSIS\Include\cmsis_armcc.h
   Uses
      At line 110 in file stm32c30dhal\main.s
Comment: HAL_Init used once
HAL_RCC_ClockConfig 00000000

Symbol: HAL_RCC_ClockConfig
   Definitions
      At line 684 in file ..\Drivers\CMSIS\Include\cmsis_armcc.h
   Uses
      At line 91 in file stm32c30dhal\main.s
Comment: HAL_RCC_ClockConfig used once
HAL_RCC_GetHCLKFreq 00000000

Symbol: HAL_RCC_GetHCLKFreq
   Definitions
      At line 710 in file ..\Drivers\CMSIS\Include\cmsis_armcc.h
   Uses
      At line 21 in file stm32c30dhal\main.s
      At line 27 in file stm32c30dhal\main.s

HAL_RCC_OscConfig 00000000

Symbol: HAL_RCC_OscConfig
   Definitions
      At line 683 in file ..\Drivers\CMSIS\Include\cmsis_armcc.h
   Uses
      At line 76 in file stm32c30dhal\main.s
Comment: HAL_RCC_OscConfig used once
HAL_SYSTICK_Config 00000000

Symbol: HAL_SYSTICK_Config
   Definitions
      At line 711 in file ..\Drivers\CMSIS\Include\cmsis_armcc.h
   Uses
      At line 24 in file stm32c30dhal\main.s
      At line 31 in file stm32c30dhal\main.s

HAL_TIM_Base_Start_IT 00000000



ARM Macro Assembler    Page 2 Alphabetic symbol ordering
External symbols


Symbol: HAL_TIM_Base_Start_IT
   Definitions
      At line 704 in file ..\Drivers\CMSIS\Include\cmsis_armcc.h
   Uses
      At line 135 in file stm32c30dhal\main.s
Comment: HAL_TIM_Base_Start_IT used once
Led_Flash 00000000

Symbol: Led_Flash
   Definitions
      At line 708 in file ..\Drivers\CMSIS\Include\cmsis_armcc.h
   Uses
      At line 147 in file stm32c30dhal\main.s
Comment: Led_Flash used once
MX_ADC1_Init 00000000

Symbol: MX_ADC1_Init
   Definitions
      At line 688 in file ..\Drivers\CMSIS\Include\cmsis_armcc.h
   Uses
      At line 114 in file stm32c30dhal\main.s
Comment: MX_ADC1_Init used once
MX_GPIO_Init 00000000

Symbol: MX_GPIO_Init
   Definitions
      At line 686 in file ..\Drivers\CMSIS\Include\cmsis_armcc.h
   Uses
      At line 112 in file stm32c30dhal\main.s
Comment: MX_GPIO_Init used once
MX_TIM10_Init 00000000

Symbol: MX_TIM10_Init
   Definitions
      At line 696 in file ..\Drivers\CMSIS\Include\cmsis_armcc.h
   Uses
      At line 122 in file stm32c30dhal\main.s
Comment: MX_TIM10_Init used once
MX_TIM11_Init 00000000

Symbol: MX_TIM11_Init
   Definitions
      At line 697 in file ..\Drivers\CMSIS\Include\cmsis_armcc.h
   Uses
      At line 123 in file stm32c30dhal\main.s
Comment: MX_TIM11_Init used once
MX_TIM12_Init 00000000

Symbol: MX_TIM12_Init
   Definitions
      At line 700 in file ..\Drivers\CMSIS\Include\cmsis_armcc.h
   Uses
      At line 126 in file stm32c30dhal\main.s
Comment: MX_TIM12_Init used once
MX_TIM1_Init 00000000

Symbol: MX_TIM1_Init
   Definitions



ARM Macro Assembler    Page 3 Alphabetic symbol ordering
External symbols

      At line 689 in file ..\Drivers\CMSIS\Include\cmsis_armcc.h
   Uses
      At line 115 in file stm32c30dhal\main.s
Comment: MX_TIM1_Init used once
MX_TIM2_Init 00000000

Symbol: MX_TIM2_Init
   Definitions
      At line 690 in file ..\Drivers\CMSIS\Include\cmsis_armcc.h
   Uses
      At line 116 in file stm32c30dhal\main.s
Comment: MX_TIM2_Init used once
MX_TIM3_Init 00000000

Symbol: MX_TIM3_Init
   Definitions
      At line 691 in file ..\Drivers\CMSIS\Include\cmsis_armcc.h
   Uses
      At line 117 in file stm32c30dhal\main.s
Comment: MX_TIM3_Init used once
MX_TIM4_Init 00000000

Symbol: MX_TIM4_Init
   Definitions
      At line 692 in file ..\Drivers\CMSIS\Include\cmsis_armcc.h
   Uses
      At line 118 in file stm32c30dhal\main.s
Comment: MX_TIM4_Init used once
MX_TIM5_Init 00000000

Symbol: MX_TIM5_Init
   Definitions
      At line 693 in file ..\Drivers\CMSIS\Include\cmsis_armcc.h
   Uses
      At line 119 in file stm32c30dhal\main.s
Comment: MX_TIM5_Init used once
MX_TIM8_Init 00000000

Symbol: MX_TIM8_Init
   Definitions
      At line 694 in file ..\Drivers\CMSIS\Include\cmsis_armcc.h
   Uses
      At line 120 in file stm32c30dhal\main.s
Comment: MX_TIM8_Init used once
MX_TIM9_Init 00000000

Symbol: MX_TIM9_Init
   Definitions
      At line 695 in file ..\Drivers\CMSIS\Include\cmsis_armcc.h
   Uses
      At line 121 in file stm32c30dhal\main.s
Comment: MX_TIM9_Init used once
MX_UART5_Init 00000000

Symbol: MX_UART5_Init
   Definitions
      At line 698 in file ..\Drivers\CMSIS\Include\cmsis_armcc.h
   Uses
      At line 124 in file stm32c30dhal\main.s



ARM Macro Assembler    Page 4 Alphabetic symbol ordering
External symbols

Comment: MX_UART5_Init used once
MX_USART1_UART_Init 00000000

Symbol: MX_USART1_UART_Init
   Definitions
      At line 687 in file ..\Drivers\CMSIS\Include\cmsis_armcc.h
   Uses
      At line 113 in file stm32c30dhal\main.s
Comment: MX_USART1_UART_Init used once
MX_USART2_UART_Init 00000000

Symbol: MX_USART2_UART_Init
   Definitions
      At line 699 in file ..\Drivers\CMSIS\Include\cmsis_armcc.h
   Uses
      At line 125 in file stm32c30dhal\main.s
Comment: MX_USART2_UART_Init used once
OLED_Init 00000000

Symbol: OLED_Init
   Definitions
      At line 701 in file ..\Drivers\CMSIS\Include\cmsis_armcc.h
   Uses
      At line 127 in file stm32c30dhal\main.s
Comment: OLED_Init used once
PS2_Read 00000000

Symbol: PS2_Read
   Definitions
      At line 705 in file ..\Drivers\CMSIS\Include\cmsis_armcc.h
   Uses
      At line 140 in file stm32c30dhal\main.s
Comment: PS2_Read used once
Robot_Select 00000000

Symbol: Robot_Select
   Definitions
      At line 703 in file ..\Drivers\CMSIS\Include\cmsis_armcc.h
   Uses
      At line 129 in file stm32c30dhal\main.s
Comment: Robot_Select used once
__aeabi_memclr4 00000000

Symbol: __aeabi_memclr4
   Definitions
      At line 682 in file ..\Drivers\CMSIS\Include\cmsis_armcc.h
   Uses
      At line 44 in file stm32c30dhal\main.s
      At line 47 in file stm32c30dhal\main.s

delay_init 00000000

Symbol: delay_init
   Definitions
      At line 702 in file ..\Drivers\CMSIS\Include\cmsis_armcc.h
   Uses
      At line 128 in file stm32c30dhal\main.s
Comment: delay_init used once
htim12 00000000



ARM Macro Assembler    Page 5 Alphabetic symbol ordering
External symbols


Symbol: htim12
   Definitions
      At line 709 in file ..\Drivers\CMSIS\Include\cmsis_armcc.h
   Uses
      At line 153 in file stm32c30dhal\main.s
Comment: htim12 used once
show_task 00000000

Symbol: show_task
   Definitions
      At line 706 in file ..\Drivers\CMSIS\Include\cmsis_armcc.h
   Uses
      At line 141 in file stm32c30dhal\main.s
Comment: show_task used once
|Lib$$Request$$armlib| 00000000

Symbol: |Lib$$Request$$armlib|
   Definitions
      At line 681 in file ..\Drivers\CMSIS\Include\cmsis_armcc.h
   Uses
      None
Comment: |Lib$$Request$$armlib| unused
32 symbols
393 symbols in table
